target datalayout = "e-m:e-p270:32:32-p271:32:32-p272:64:64-i64:64-i128:128-f80:128-n8:16:32:64-S128"
target triple = "x86_64-unknown-linux-gnu"

%"class.v8::IndirectHandleBase" = type { ptr }
%"class.v8::HandleScope" = type { ptr, ptr, ptr }
%"class.v8::Local.264" = type { %"class.v8::LocalBase.265" }
%"class.v8::LocalBase.265" = type { %"class.v8::IndirectHandleBase" }
%"struct.node::async_context" = type { double, double }
%"class.v8::Local.262" = type { %"class.v8::LocalBase.263" }
%"class.v8::LocalBase.263" = type { %"class.v8::IndirectHandleBase" }
%"class.v8::MaybeLocal.266" = type { %"class.v8::Local.264" }

; Function Attrs: mustprogress nounwind uwtable
define dso_local { double, double } @_ZN4node13EmitAsyncInitEPN2v87IsolateENS0_5LocalINS0_6ObjectEEEPKcd(ptr noundef %isolate, ptr %resource.coerce, ptr noundef %name, double noundef %trigger_async_id) #4 {
entry:
  %this.addr.i.i = alloca ptr, align 8
  %this.addr.i19 = alloca ptr, align 8
  %retval.i = alloca %"class.v8::Local.264", align 8
  %this.addr.i = alloca ptr, align 8
  %retval = alloca %"struct.node::async_context", align 8
  %resource = alloca %"class.v8::Local.262", align 8
  %isolate.addr = alloca ptr, align 8
  %name.addr = alloca ptr, align 8
  %trigger_async_id.addr = alloca double, align 8
  %handle_scope = alloca %"class.v8::HandleScope", align 8
  %type = alloca %"class.v8::Local.264", align 8
  %ref.tmp = alloca %"class.v8::MaybeLocal.266", align 8
  %agg.tmp = alloca %"class.v8::Local.262", align 8
  %agg.tmp11 = alloca %"class.v8::Local.264", align 8
  %coerce.dive = getelementptr inbounds %"class.v8::Local.262", ptr %resource, i32 0, i32 0
  %coerce.dive1 = getelementptr inbounds %"class.v8::LocalBase.263", ptr %coerce.dive, i32 0, i32 0
  %coerce.dive2 = getelementptr inbounds %"class.v8::IndirectHandleBase", ptr %coerce.dive1, i32 0, i32 0
  store ptr %resource.coerce, ptr %coerce.dive2, align 8
  store ptr %isolate, ptr %isolate.addr, align 8
  store ptr %name, ptr %name.addr, align 8
  store double %trigger_async_id, ptr %trigger_async_id.addr, align 8
  %0 = load ptr, ptr %isolate.addr, align 8
  call void @_ZN2v811HandleScopeC1EPNS_7IsolateE(ptr noundef nonnull align 8 dereferenceable(24) %handle_scope, ptr noundef %0)
  %1 = load ptr, ptr %isolate.addr, align 8
  %2 = load ptr, ptr %name.addr, align 8
  %call = call ptr @_ZN2v86String11NewFromUtf8EPNS_7IsolateEPKcNS_13NewStringTypeEi(ptr noundef %1, ptr noundef %2, i32 noundef 1, i32 noundef -1)
  %coerce.dive3 = getelementptr inbounds %"class.v8::MaybeLocal.266", ptr %ref.tmp, i32 0, i32 0
  %coerce.dive4 = getelementptr inbounds %"class.v8::Local.264", ptr %coerce.dive3, i32 0, i32 0
  %coerce.dive5 = getelementptr inbounds %"class.v8::LocalBase.265", ptr %coerce.dive4, i32 0, i32 0
  %coerce.dive6 = getelementptr inbounds %"class.v8::IndirectHandleBase", ptr %coerce.dive5, i32 0, i32 0
  store ptr %call, ptr %coerce.dive6, align 8
  store ptr %ref.tmp, ptr %this.addr.i, align 8
  %this1.i = load ptr, ptr %this.addr.i, align 8
  store ptr %this1.i, ptr %this.addr.i19, align 8
  %this1.i20 = load ptr, ptr %this.addr.i19, align 8
  store ptr %this1.i20, ptr %this.addr.i.i, align 8
  %this1.i.i = load ptr, ptr %this.addr.i.i, align 8
  %3 = load ptr, ptr %this1.i.i, align 8
  %cmp.i.i = icmp eq ptr %3, null
  br i1 %cmp.i.i, label %if.then.i, label %_ZN2v810MaybeLocalINS_6StringEE14ToLocalCheckedEv.exit

if.then.i:                                        ; preds = %entry
  call void @_ZN2v812api_internal12ToLocalEmptyEv() #3
  br label %_ZN2v810MaybeLocalINS_6StringEE14ToLocalCheckedEv.exit

_ZN2v810MaybeLocalINS_6StringEE14ToLocalCheckedEv.exit: ; preds = %if.then.i, %entry
  call void @llvm.memcpy.p0.p0.i64(ptr align 8 %retval.i, ptr align 8 %this1.i, i64 8, i1 false)
  %4 = load ptr, ptr %retval.i, align 8
  %coerce.dive8 = getelementptr inbounds %"class.v8::Local.264", ptr %type, i32 0, i32 0
  %coerce.dive9 = getelementptr inbounds %"class.v8::LocalBase.265", ptr %coerce.dive8, i32 0, i32 0
  %coerce.dive10 = getelementptr inbounds %"class.v8::IndirectHandleBase", ptr %coerce.dive9, i32 0, i32 0
  store ptr %4, ptr %coerce.dive10, align 8
  %5 = load ptr, ptr %isolate.addr, align 8
  call void @llvm.memcpy.p0.p0.i64(ptr align 8 %agg.tmp, ptr align 8 %resource, i64 8, i1 false)
  call void @llvm.memcpy.p0.p0.i64(ptr align 8 %agg.tmp11, ptr align 8 %type, i64 8, i1 false)
  %6 = load double, ptr %trigger_async_id.addr, align 8
  %coerce.dive12 = getelementptr inbounds %"class.v8::Local.262", ptr %agg.tmp, i32 0, i32 0
  %coerce.dive13 = getelementptr inbounds %"class.v8::LocalBase.263", ptr %coerce.dive12, i32 0, i32 0
  %coerce.dive14 = getelementptr inbounds %"class.v8::IndirectHandleBase", ptr %coerce.dive13, i32 0, i32 0
  %7 = load ptr, ptr %coerce.dive14, align 8
  %coerce.dive15 = getelementptr inbounds %"class.v8::Local.264", ptr %agg.tmp11, i32 0, i32 0
  %coerce.dive16 = getelementptr inbounds %"class.v8::LocalBase.265", ptr %coerce.dive15, i32 0, i32 0
  %coerce.dive17 = getelementptr inbounds %"class.v8::IndirectHandleBase", ptr %coerce.dive16, i32 0, i32 0
  %8 = load ptr, ptr %coerce.dive17, align 8
  %call18 = call { double, double } @_ZN4node13EmitAsyncInitEPN2v87IsolateENS0_5LocalINS0_6ObjectEEENS3_INS0_6StringEEEd(ptr noundef %5, ptr %7, ptr %8, double noundef %6)
  %9 = getelementptr inbounds { double, double }, ptr %retval, i32 0, i32 0
  %10 = extractvalue { double, double } %call18, 0
  store double %10, ptr %9, align 8
  %11 = getelementptr inbounds { double, double }, ptr %retval, i32 0, i32 1
  %12 = extractvalue { double, double } %call18, 1
  store double %12, ptr %11, align 8
  call void @_ZN2v811HandleScopeD1Ev(ptr noundef nonnull align 8 dereferenceable(24) %handle_scope) #3
  %13 = load { double, double }, ptr %retval, align 8
  ret { double, double } %13
}